target datalayout = "e-m:e-p270:32:32-p271:32:32-p272:64:64-i64:64-i128:128-f80:128-n8:16:32:64-S128"
target triple = "x86_64-pc-linux-gnu"

%struct.H5D_chunk_rec_t = type { [33 x i64], i32, i32, i64 }
%struct.H5D_chunk_info_iter_ud_t = type { [33 x i64], i64, i32, i32, i64, i64, i64, i32, i8 }

@H5D_init_g = external global i8, align 1
@H5_libterm_g = external global i8, align 1

; Function Attrs: nounwind uwtable
define internal i32 @H5D__get_chunk_info_by_coord_cb(ptr noundef %0, ptr noundef %1) #0 {
  %3 = alloca ptr, align 8
  %4 = alloca ptr, align 8
  %5 = alloca ptr, align 8
  %6 = alloca i8, align 1
  %7 = alloca i64, align 8
  %8 = alloca i32, align 4
  store ptr %0, ptr %3, align 8, !tbaa !259
  store ptr %1, ptr %4, align 8, !tbaa !154
  call void @llvm.lifetime.start.p0(i64 8, ptr %5) #10
  %9 = load ptr, ptr %4, align 8, !tbaa !154
  store ptr %9, ptr %5, align 8, !tbaa !407
  call void @llvm.lifetime.start.p0(i64 1, ptr %6) #10
  store i8 0, ptr %6, align 1, !tbaa !12
  call void @llvm.lifetime.start.p0(i64 8, ptr %7) #10
  call void @llvm.lifetime.start.p0(i64 4, ptr %8) #10
  store i32 0, ptr %8, align 4, !tbaa !10
  %10 = load i8, ptr @H5D_init_g, align 1, !tbaa !12, !range !14, !noundef !15
  %11 = trunc i8 %10 to i1
  br i1 %11, label %16, label %12

12:                                               ; preds = %2
  %13 = load i8, ptr @H5_libterm_g, align 1, !tbaa !12, !range !14, !noundef !15
  %14 = trunc i8 %13 to i1
  %15 = xor i1 %14, true
  br label %16

16:                                               ; preds = %12, %2
  %17 = phi i1 [ true, %2 ], [ %15, %12 ]
  %18 = xor i1 %17, true
  %19 = xor i1 %18, true
  %20 = zext i1 %19 to i32
  %21 = sext i32 %20 to i64
  %22 = call i64 @llvm.expect.i64(i64 %21, i64 1)
  %23 = icmp ne i64 %22, 0
  br i1 %23, label %24, label %76

24:                                               ; preds = %16
  store i64 0, ptr %7, align 8, !tbaa !24
  br label %25

25:                                               ; preds = %51, %24
  %26 = load i64, ptr %7, align 8, !tbaa !24
  %27 = load ptr, ptr %5, align 8, !tbaa !407
  %28 = getelementptr inbounds nuw %struct.H5D_chunk_info_iter_ud_t, ptr %27, i32 0, i32 1
  %29 = load i64, ptr %28, align 8, !tbaa !401
  %30 = icmp ult i64 %26, %29
  br i1 %30, label %31, label %35

31:                                               ; preds = %25
  %32 = load i8, ptr %6, align 1, !tbaa !12, !range !14, !noundef !15
  %33 = trunc i8 %32 to i1
  %34 = xor i1 %33, true
  br label %35

35:                                               ; preds = %31, %25
  %36 = phi i1 [ false, %25 ], [ %34, %31 ]
  br i1 %36, label %37, label %54

37:                                               ; preds = %35
  %38 = load ptr, ptr %5, align 8, !tbaa !407
  %39 = getelementptr inbounds nuw %struct.H5D_chunk_info_iter_ud_t, ptr %38, i32 0, i32 0
  %40 = load i64, ptr %7, align 8, !tbaa !24
  %41 = getelementptr inbounds nuw [33 x i64], ptr %39, i64 0, i64 %40
  %42 = load i64, ptr %41, align 8, !tbaa !24
  %43 = load ptr, ptr %3, align 8, !tbaa !259
  %44 = getelementptr inbounds nuw %struct.H5D_chunk_rec_t, ptr %43, i32 0, i32 0
  %45 = load i64, ptr %7, align 8, !tbaa !24
  %46 = getelementptr inbounds nuw [33 x i64], ptr %44, i64 0, i64 %45
  %47 = load i64, ptr %46, align 8, !tbaa !24
  %48 = icmp ne i64 %42, %47
  br i1 %48, label %49, label %50

49:                                               ; preds = %37
  store i8 1, ptr %6, align 1, !tbaa !12
  br label %50

50:                                               ; preds = %49, %37
  br label %51

51:                                               ; preds = %50
  %52 = load i64, ptr %7, align 8, !tbaa !24
  %53 = add i64 %52, 1
  store i64 %53, ptr %7, align 8, !tbaa !24
  br label %25, !llvm.loop !411

54:                                               ; preds = %35
  %55 = load i8, ptr %6, align 1, !tbaa !12, !range !14, !noundef !15
  %56 = trunc i8 %55 to i1
  br i1 %56, label %75, label %57

57:                                               ; preds = %54
  %58 = load ptr, ptr %3, align 8, !tbaa !259
  %59 = getelementptr inbounds nuw %struct.H5D_chunk_rec_t, ptr %58, i32 0, i32 1
  %60 = load i32, ptr %59, align 8, !tbaa !261
  %61 = load ptr, ptr %5, align 8, !tbaa !407
  %62 = getelementptr inbounds nuw %struct.H5D_chunk_info_iter_ud_t, ptr %61, i32 0, i32 2
  store i32 %60, ptr %62, align 8, !tbaa !402
  %63 = load ptr, ptr %3, align 8, !tbaa !259
  %64 = getelementptr inbounds nuw %struct.H5D_chunk_rec_t, ptr %63, i32 0, i32 2
  %65 = load i32, ptr %64, align 4, !tbaa !360
  %66 = load ptr, ptr %5, align 8, !tbaa !407
  %67 = getelementptr inbounds nuw %struct.H5D_chunk_info_iter_ud_t, ptr %66, i32 0, i32 3
  store i32 %65, ptr %67, align 4, !tbaa !403
  %68 = load ptr, ptr %3, align 8, !tbaa !259
  %69 = getelementptr inbounds nuw %struct.H5D_chunk_rec_t, ptr %68, i32 0, i32 3
  %70 = load i64, ptr %69, align 8, !tbaa !361
  %71 = load ptr, ptr %5, align 8, !tbaa !407
  %72 = getelementptr inbounds nuw %struct.H5D_chunk_info_iter_ud_t, ptr %71, i32 0, i32 4
  store i64 %70, ptr %72, align 8, !tbaa !404
  %73 = load ptr, ptr %5, align 8, !tbaa !407
  %74 = getelementptr inbounds nuw %struct.H5D_chunk_info_iter_ud_t, ptr %73, i32 0, i32 8
  store i8 1, ptr %74, align 4, !tbaa !405
  store i32 1, ptr %8, align 4, !tbaa !10
  br label %75

75:                                               ; preds = %57, %54
  br label %76

76:                                               ; preds = %75, %16
  %77 = load i32, ptr %8, align 4, !tbaa !10
  call void @llvm.lifetime.end.p0(i64 4, ptr %8) #10
  call void @llvm.lifetime.end.p0(i64 8, ptr %7) #10
  call void @llvm.lifetime.end.p0(i64 1, ptr %6) #10
  call void @llvm.lifetime.end.p0(i64 8, ptr %5) #10
  ret i32 %77
}