; Function Attrs: nofree norecurse nosync nounwind memory(read, argmem: readwrite, inaccessiblemem: none) uwtable
define internal range(i32 0, 2) i32 @H5D__get_chunk_info_by_coord_cb(ptr noundef readonly captures(none) %0, ptr noundef captures(none) %1) #11 {
  %3 = load i8, ptr @H5D_init_g, align 1, !tbaa !3, !range !7, !noundef !8
  %4 = trunc nuw i8 %3 to i1
  %5 = load i8, ptr @H5_libterm_g, align 1, !range !7
  %6 = trunc nuw i8 %5 to i1
  %7 = xor i1 %6, true
  %8 = select i1 %4, i1 true, i1 %7
  br i1 %8, label %.preheader, label %28, !prof !9

.preheader:                                       ; preds = %2
  %9 = getelementptr inbounds nuw i8, ptr %1, i64 264
  %10 = load i64, ptr %9, align 8, !tbaa !376
  %11 = icmp eq i64 %10, 0
  br i1 %11, label %.critedge, label %.lr.ph

.lr.ph:                                           ; preds = %.preheader, %.lr.ph
  %.01721 = phi i64 [ %16, %.lr.ph ], [ 0, %.preheader ]
  %12 = getelementptr inbounds nuw [33 x i64], ptr %1, i64 0, i64 %.01721
  %13 = load i64, ptr %12, align 8, !tbaa !21
  %14 = getelementptr inbounds nuw [33 x i64], ptr %0, i64 0, i64 %.01721
  %15 = load i64, ptr %14, align 8, !tbaa !21
  %.not = icmp ne i64 %13, %15
  %16 = add nuw i64 %.01721, 1
  %17 = icmp uge i64 %16, %10
  %.not19 = select i1 %17, i1 true, i1 %.not
  br i1 %.not19, label %._crit_edge, label %.lr.ph, !llvm.loop !384

._crit_edge:                                      ; preds = %.lr.ph
  br i1 %.not, label %28, label %.critedge

.critedge:                                        ; preds = %.preheader, %._crit_edge
  %18 = getelementptr inbounds nuw i8, ptr %0, i64 264
  %19 = load i32, ptr %18, align 8, !tbaa !253
  %20 = getelementptr inbounds nuw i8, ptr %1, i64 272
  store i32 %19, ptr %20, align 8, !tbaa !377
  %21 = getelementptr inbounds nuw i8, ptr %0, i64 268
  %22 = load i32, ptr %21, align 4, !tbaa !346
  %23 = getelementptr inbounds nuw i8, ptr %1, i64 276
  store i32 %22, ptr %23, align 4, !tbaa !378
  %24 = getelementptr inbounds nuw i8, ptr %0, i64 272
  %25 = load i64, ptr %24, align 8, !tbaa !347
  %26 = getelementptr inbounds nuw i8, ptr %1, i64 280
  store i64 %25, ptr %26, align 8, !tbaa !379
  %27 = getelementptr inbounds nuw i8, ptr %1, i64 308
  store i8 1, ptr %27, align 4, !tbaa !380
  br label %28

28:                                               ; preds = %._crit_edge, %.critedge, %2
  %.0 = phi i32 [ 0, %._crit_edge ], [ 1, %.critedge ], [ 0, %2 ]
  ret i32 %.0
}